; Function Attrs: nounwind sspstrong uwtable
define internal i64 @virtio_scsi_get_features(ptr noundef %vdev, i64 noundef %requested_features, ptr readnone captures(none) %errp) #0 {
entry:
  %call.i = tail call ptr @object_dynamic_cast_assert(ptr noundef %vdev, ptr noundef nonnull @.str.9, ptr noundef nonnull @.str.6, i32 noundef 31, ptr noundef nonnull @__func__.VIRTIO_SCSI) #13
  %host_features = getelementptr inbounds nuw i8, ptr %call.i, i64 852
  %0 = load i32, ptr %host_features, align 4
  %conv = zext i32 %0 to i64
  %or = or i64 %requested_features, %conv
  ret i64 %or
}